; Function Attrs: mustprogress nofree norecurse nosync nounwind willreturn memory(none) uwtable
define hidden noundef float @_ZN5logos9PointPair9angleDiffEff(ptr noundef nonnull readnone align 8 captures(none) dereferenceable(36) %0, float noundef %1, float noundef %2) local_unnamed_addr #7 align 2 {
  %4 = fsub float %1, %2
  %5 = fpext float %4 to double
  %6 = fcmp ogt double %5, 0x400921FB54442D18
  br i1 %6, label %.lr.ph, label %.preheader

.preheader:                                       ; preds = %.lr.ph, %3
  %.pre-phi = phi double [ %5, %3 ], [ %11, %.lr.ph ]
  %.0.lcssa = phi float [ %4, %3 ], [ %10, %.lr.ph ]
  %7 = fcmp olt double %.pre-phi, 0xC00921FB54442D18
  br i1 %7, label %.lr.ph9, label %._crit_edge

.lr.ph:                                           ; preds = %3, %.lr.ph
  %8 = phi double [ %11, %.lr.ph ], [ %5, %3 ]
  %9 = fadd double %8, 0xC01921FB54442D18
  %10 = fptrunc double %9 to float
  %11 = fpext float %10 to double
  %12 = fcmp ogt double %11, 0x400921FB54442D18
  br i1 %12, label %.lr.ph, label %.preheader, !llvm.loop !24

.lr.ph9:                                          ; preds = %.preheader, %.lr.ph9
  %13 = phi double [ %16, %.lr.ph9 ], [ %.pre-phi, %.preheader ]
  %14 = fadd double %13, 0x401921FB54442D18
  %15 = fptrunc double %14 to float
  %16 = fpext float %15 to double
  %17 = fcmp olt double %16, 0xC00921FB54442D18
  br i1 %17, label %.lr.ph9, label %._crit_edge, !llvm.loop !26

._crit_edge:                                      ; preds = %.lr.ph9, %.preheader
  %.1.lcssa = phi float [ %.0.lcssa, %.preheader ], [ %15, %.lr.ph9 ]
  ret float %.1.lcssa
}